target datalayout = "e-m:e-p270:32:32-p271:32:32-p272:64:64-i64:64-i128:128-f80:128-n8:16:32:64-S128"
target triple = "x86_64-pc-linux-gnu"

; Function Attrs: nounwind uwtable
define hidden i32 @mbedtls_mpi_core_read_le(ptr noundef %0, i64 noundef %1, ptr noundef %2, i64 noundef %3) #0 {
  %5 = alloca i32, align 4
  %6 = alloca ptr, align 8
  %7 = alloca i64, align 8
  %8 = alloca ptr, align 8
  %9 = alloca i64, align 8
  %10 = alloca i64, align 8
  %11 = alloca i32, align 4
  %12 = alloca i64, align 8
  %13 = alloca i64, align 8
  store ptr %0, ptr %6, align 8, !tbaa !7
  store i64 %1, ptr %7, align 8, !tbaa !3
  store ptr %2, ptr %8, align 8, !tbaa !22
  store i64 %3, ptr %9, align 8, !tbaa !3
  call void @llvm.lifetime.start.p0(i64 8, ptr %10) #7
  %14 = load i64, ptr %9, align 8, !tbaa !3
  %15 = udiv i64 %14, 8
  %16 = load i64, ptr %9, align 8, !tbaa !3
  %17 = urem i64 %16, 8
  %18 = icmp ne i64 %17, 0
  %19 = zext i1 %18 to i32
  %20 = sext i32 %19 to i64
  %21 = add i64 %15, %20
  store i64 %21, ptr %10, align 8, !tbaa !3
  %22 = load i64, ptr %7, align 8, !tbaa !3
  %23 = load i64, ptr %10, align 8, !tbaa !3
  %24 = icmp ult i64 %22, %23
  br i1 %24, label %25, label %26

25:                                               ; preds = %4
  store i32 -8, ptr %5, align 4
  store i32 1, ptr %11, align 4
  br label %60

26:                                               ; preds = %4
  %27 = load ptr, ptr %6, align 8, !tbaa !7
  %28 = icmp ne ptr %27, null
  br i1 %28, label %29, label %59

29:                                               ; preds = %26
  %30 = load ptr, ptr %6, align 8, !tbaa !7
  %31 = load i64, ptr %7, align 8, !tbaa !3
  %32 = mul i64 %31, 8
  call void @llvm.memset.p0.i64(ptr align 8 %30, i8 0, i64 %32, i1 false)
  call void @llvm.lifetime.start.p0(i64 8, ptr %12) #7
  store i64 0, ptr %12, align 8, !tbaa !3
  br label %33

33:                                               ; preds = %55, %29
  %34 = load i64, ptr %12, align 8, !tbaa !3
  %35 = load i64, ptr %9, align 8, !tbaa !3
  %36 = icmp ult i64 %34, %35
  br i1 %36, label %38, label %37

37:                                               ; preds = %33
  store i32 2, ptr %11, align 4
  call void @llvm.lifetime.end.p0(i64 8, ptr %12) #7
  br label %58

38:                                               ; preds = %33
  call void @llvm.lifetime.start.p0(i64 8, ptr %13) #7
  %39 = load i64, ptr %12, align 8, !tbaa !3
  %40 = urem i64 %39, 8
  %41 = shl i64 %40, 3
  store i64 %41, ptr %13, align 8, !tbaa !3
  %42 = load ptr, ptr %8, align 8, !tbaa !22
  %43 = load i64, ptr %12, align 8, !tbaa !3
  %44 = getelementptr inbounds nuw i8, ptr %42, i64 %43
  %45 = load i8, ptr %44, align 1, !tbaa !24
  %46 = zext i8 %45 to i64
  %47 = load i64, ptr %13, align 8, !tbaa !3
  %48 = shl i64 %46, %47
  %49 = load ptr, ptr %6, align 8, !tbaa !7
  %50 = load i64, ptr %12, align 8, !tbaa !3
  %51 = udiv i64 %50, 8
  %52 = getelementptr inbounds nuw i64, ptr %49, i64 %51
  %53 = load i64, ptr %52, align 8, !tbaa !3
  %54 = or i64 %53, %48
  store i64 %54, ptr %52, align 8, !tbaa !3
  call void @llvm.lifetime.end.p0(i64 8, ptr %13) #7
  br label %55

55:                                               ; preds = %38
  %56 = load i64, ptr %12, align 8, !tbaa !3
  %57 = add i64 %56, 1
  store i64 %57, ptr %12, align 8, !tbaa !3
  br label %33, !llvm.loop !25

58:                                               ; preds = %37
  br label %59

59:                                               ; preds = %58, %26
  store i32 0, ptr %5, align 4
  store i32 1, ptr %11, align 4
  br label %60

60:                                               ; preds = %59, %25
  call void @llvm.lifetime.end.p0(i64 8, ptr %10) #7
  %61 = load i32, ptr %5, align 4
  ret i32 %61
}