; Function Attrs: nofree norecurse nosync nounwind memory(argmem: readwrite) uwtable
define hidden range(i32 -8, 1) i32 @mbedtls_mpi_core_read_le(ptr noundef %0, i64 noundef %1, ptr noundef readonly captures(none) %2, i64 noundef %3) local_unnamed_addr #4 {
  %5 = lshr i64 %3, 3
  %6 = and i64 %3, 7
  %7 = icmp ne i64 %6, 0
  %8 = zext i1 %7 to i64
  %9 = add nuw nsw i64 %5, %8
  %10 = icmp ult i64 %1, %9
  br i1 %10, label %.loopexit, label %11

11:                                               ; preds = %4
  %.not = icmp eq ptr %0, null
  br i1 %.not, label %.loopexit, label %12

12:                                               ; preds = %11
  %13 = shl i64 %1, 3
  tail call void @llvm.memset.p0.i64(ptr nonnull align 8 %0, i8 0, i64 %13, i1 false)
  %.not20 = icmp eq i64 %3, 0
  br i1 %.not20, label %.loopexit, label %.lr.ph

.lr.ph:                                           ; preds = %12, %.lr.ph
  %.01619 = phi i64 [ %24, %.lr.ph ], [ 0, %12 ]
  %14 = shl i64 %.01619, 3
  %15 = and i64 %14, 56
  %16 = getelementptr inbounds nuw i8, ptr %2, i64 %.01619
  %17 = load i8, ptr %16, align 1, !tbaa !18
  %18 = zext i8 %17 to i64
  %19 = shl nuw i64 %18, %15
  %20 = lshr i64 %.01619, 3
  %21 = getelementptr inbounds nuw i64, ptr %0, i64 %20
  %22 = load i64, ptr %21, align 8, !tbaa !3
  %23 = or i64 %19, %22
  store i64 %23, ptr %21, align 8, !tbaa !3
  %24 = add nuw i64 %.01619, 1
  %exitcond.not = icmp eq i64 %24, %3
  br i1 %exitcond.not, label %.loopexit, label %.lr.ph, !llvm.loop !19

.loopexit:                                        ; preds = %.lr.ph, %12, %11, %4
  %.0 = phi i32 [ -8, %4 ], [ 0, %11 ], [ 0, %12 ], [ 0, %.lr.ph ]
  ret i32 %.0
}